target datalayout = "e-m:e-p270:32:32-p271:32:32-p272:64:64-i64:64-i128:128-f80:128-n8:16:32:64-S128"
target triple = "x86_64-pc-linux-gnu"

; Function Attrs: nounwind uwtable
define dso_local i32 @chartorune(ptr noundef %0, ptr noundef %1) #0 {
  %3 = alloca i32, align 4
  %4 = alloca ptr, align 8
  %5 = alloca ptr, align 8
  %6 = alloca i32, align 4
  %7 = alloca i32, align 4
  %8 = alloca i32, align 4
  %9 = alloca i32, align 4
  %10 = alloca i64, align 8
  %11 = alloca i32, align 4
  store ptr %0, ptr %4, align 8, !tbaa !4
  store ptr %1, ptr %5, align 8, !tbaa !9
  call void @llvm.lifetime.start.p0(i64 4, ptr %6) #2
  call void @llvm.lifetime.start.p0(i64 4, ptr %7) #2
  call void @llvm.lifetime.start.p0(i64 4, ptr %8) #2
  call void @llvm.lifetime.start.p0(i64 4, ptr %9) #2
  call void @llvm.lifetime.start.p0(i64 8, ptr %10) #2
  %12 = load ptr, ptr %5, align 8, !tbaa !9
  %13 = load i8, ptr %12, align 1, !tbaa !13
  %14 = zext i8 %13 to i32
  store i32 %14, ptr %6, align 4, !tbaa !11
  %15 = load i32, ptr %6, align 4, !tbaa !11
  %16 = icmp slt i32 %15, 128
  br i1 %16, label %17, label %20

17:                                               ; preds = %2
  %18 = load i32, ptr %6, align 4, !tbaa !11
  %19 = load ptr, ptr %4, align 8, !tbaa !4
  store i32 %18, ptr %19, align 4, !tbaa !11
  store i32 1, ptr %3, align 4
  store i32 1, ptr %11, align 4
  br label %127

20:                                               ; preds = %2
  %21 = load ptr, ptr %5, align 8, !tbaa !9
  %22 = getelementptr inbounds i8, ptr %21, i64 1
  %23 = load i8, ptr %22, align 1, !tbaa !13
  %24 = zext i8 %23 to i32
  %25 = xor i32 %24, 128
  store i32 %25, ptr %7, align 4, !tbaa !11
  %26 = load i32, ptr %7, align 4, !tbaa !11
  %27 = and i32 %26, 192
  %28 = icmp ne i32 %27, 0
  br i1 %28, label %29, label %30

29:                                               ; preds = %20
  br label %125

30:                                               ; preds = %20
  %31 = load i32, ptr %6, align 4, !tbaa !11
  %32 = icmp slt i32 %31, 224
  br i1 %32, label %33, label %51

33:                                               ; preds = %30
  %34 = load i32, ptr %6, align 4, !tbaa !11
  %35 = icmp slt i32 %34, 192
  br i1 %35, label %36, label %37

36:                                               ; preds = %33
  br label %125

37:                                               ; preds = %33
  %38 = load i32, ptr %6, align 4, !tbaa !11
  %39 = shl i32 %38, 6
  %40 = load i32, ptr %7, align 4, !tbaa !11
  %41 = or i32 %39, %40
  %42 = and i32 %41, 2047
  %43 = sext i32 %42 to i64
  store i64 %43, ptr %10, align 8, !tbaa !14
  %44 = load i64, ptr %10, align 8, !tbaa !14
  %45 = icmp sle i64 %44, 127
  br i1 %45, label %46, label %47

46:                                               ; preds = %37
  br label %125

47:                                               ; preds = %37
  %48 = load i64, ptr %10, align 8, !tbaa !14
  %49 = trunc i64 %48 to i32
  %50 = load ptr, ptr %4, align 8, !tbaa !4
  store i32 %49, ptr %50, align 4, !tbaa !11
  store i32 2, ptr %3, align 4
  store i32 1, ptr %11, align 4
  br label %127

51:                                               ; preds = %30
  %52 = load ptr, ptr %5, align 8, !tbaa !9
  %53 = getelementptr inbounds i8, ptr %52, i64 2
  %54 = load i8, ptr %53, align 1, !tbaa !13
  %55 = zext i8 %54 to i32
  %56 = xor i32 %55, 128
  store i32 %56, ptr %8, align 4, !tbaa !11
  %57 = load i32, ptr %8, align 4, !tbaa !11
  %58 = and i32 %57, 192
  %59 = icmp ne i32 %58, 0
  br i1 %59, label %60, label %61

60:                                               ; preds = %51
  br label %125

61:                                               ; preds = %51
  %62 = load i32, ptr %6, align 4, !tbaa !11
  %63 = icmp slt i32 %62, 240
  br i1 %63, label %64, label %88

64:                                               ; preds = %61
  %65 = load i32, ptr %6, align 4, !tbaa !11
  %66 = shl i32 %65, 6
  %67 = load i32, ptr %7, align 4, !tbaa !11
  %68 = or i32 %66, %67
  %69 = shl i32 %68, 6
  %70 = load i32, ptr %8, align 4, !tbaa !11
  %71 = or i32 %69, %70
  %72 = and i32 %71, 65535
  %73 = sext i32 %72 to i64
  store i64 %73, ptr %10, align 8, !tbaa !14
  %74 = load i64, ptr %10, align 8, !tbaa !14
  %75 = icmp sle i64 %74, 2047
  br i1 %75, label %76, label %77

76:                                               ; preds = %64
  br label %125

77:                                               ; preds = %64
  %78 = load i64, ptr %10, align 8, !tbaa !14
  %79 = icmp sle i64 55296, %78
  br i1 %79, label %80, label %84

80:                                               ; preds = %77
  %81 = load i64, ptr %10, align 8, !tbaa !14
  %82 = icmp sle i64 %81, 57343
  br i1 %82, label %83, label %84

83:                                               ; preds = %80
  br label %125

84:                                               ; preds = %80, %77
  %85 = load i64, ptr %10, align 8, !tbaa !14
  %86 = trunc i64 %85 to i32
  %87 = load ptr, ptr %4, align 8, !tbaa !4
  store i32 %86, ptr %87, align 4, !tbaa !11
  store i32 3, ptr %3, align 4
  store i32 1, ptr %11, align 4
  br label %127

88:                                               ; preds = %61
  %89 = load ptr, ptr %5, align 8, !tbaa !9
  %90 = getelementptr inbounds i8, ptr %89, i64 3
  %91 = load i8, ptr %90, align 1, !tbaa !13
  %92 = zext i8 %91 to i32
  %93 = xor i32 %92, 128
  store i32 %93, ptr %9, align 4, !tbaa !11
  %94 = load i32, ptr %9, align 4, !tbaa !11
  %95 = and i32 %94, 192
  %96 = icmp ne i32 %95, 0
  br i1 %96, label %97, label %98

97:                                               ; preds = %88
  br label %125

98:                                               ; preds = %88
  %99 = load i32, ptr %6, align 4, !tbaa !11
  %100 = icmp slt i32 %99, 248
  br i1 %100, label %101, label %124

101:                                              ; preds = %98
  %102 = load i32, ptr %6, align 4, !tbaa !11
  %103 = shl i32 %102, 6
  %104 = load i32, ptr %7, align 4, !tbaa !11
  %105 = or i32 %103, %104
  %106 = shl i32 %105, 6
  %107 = load i32, ptr %8, align 4, !tbaa !11
  %108 = or i32 %106, %107
  %109 = shl i32 %108, 6
  %110 = load i32, ptr %9, align 4, !tbaa !11
  %111 = or i32 %109, %110
  %112 = and i32 %111, 2097151
  %113 = sext i32 %112 to i64
  store i64 %113, ptr %10, align 8, !tbaa !14
  %114 = load i64, ptr %10, align 8, !tbaa !14
  %115 = icmp sle i64 %114, 65535
  br i1 %115, label %119, label %116

116:                                              ; preds = %101
  %117 = load i64, ptr %10, align 8, !tbaa !14
  %118 = icmp sgt i64 %117, 1114111
  br i1 %118, label %119, label %120

119:                                              ; preds = %116, %101
  br label %125

120:                                              ; preds = %116
  %121 = load i64, ptr %10, align 8, !tbaa !14
  %122 = trunc i64 %121 to i32
  %123 = load ptr, ptr %4, align 8, !tbaa !4
  store i32 %122, ptr %123, align 4, !tbaa !11
  store i32 4, ptr %3, align 4
  store i32 1, ptr %11, align 4
  br label %127

124:                                              ; preds = %98
  br label %125

125:                                              ; preds = %124, %119, %97, %83, %76, %60, %46, %36, %29
  %126 = load ptr, ptr %4, align 8, !tbaa !4
  store i32 65533, ptr %126, align 4, !tbaa !11
  store i32 1, ptr %3, align 4
  store i32 1, ptr %11, align 4
  br label %127

127:                                              ; preds = %125, %120, %84, %47, %17
  call void @llvm.lifetime.end.p0(i64 8, ptr %10) #2
  call void @llvm.lifetime.end.p0(i64 4, ptr %9) #2
  call void @llvm.lifetime.end.p0(i64 4, ptr %8) #2
  call void @llvm.lifetime.end.p0(i64 4, ptr %7) #2
  call void @llvm.lifetime.end.p0(i64 4, ptr %6) #2
  %128 = load i32, ptr %3, align 4
  ret i32 %128
}