; Function Attrs: mustprogress nofree norecurse nosync nounwind willreturn memory(argmem: readwrite) uwtable
define dso_local range(i32 1, 5) i32 @chartorune(ptr noundef writeonly captures(none) initializes((0, 4)) %0, ptr noundef readonly captures(none) %1) local_unnamed_addr #0 {
  %3 = load i8, ptr %1, align 1, !tbaa !4
  %4 = zext i8 %3 to i32
  %5 = icmp sgt i8 %3, -1
  br i1 %5, label %50, label %6

6:                                                ; preds = %2
  %7 = getelementptr inbounds nuw i8, ptr %1, i64 1
  %8 = load i8, ptr %7, align 1, !tbaa !4
  %9 = xor i8 %8, -128
  %10 = zext i8 %9 to i32
  %.not = icmp ult i8 %9, 64
  br i1 %.not, label %11, label %49

11:                                               ; preds = %6
  %12 = icmp samesign ult i8 %3, -32
  br i1 %12, label %13, label %19

13:                                               ; preds = %11
  %14 = icmp samesign ult i8 %3, -64
  br i1 %14, label %49, label %15

15:                                               ; preds = %13
  %16 = shl nuw nsw i32 %4, 6
  %.masked46 = and i32 %16, 1984
  %17 = or disjoint i32 %.masked46, %10
  %18 = icmp samesign ult i32 %17, 128
  br i1 %18, label %49, label %50

19:                                               ; preds = %11
  %20 = getelementptr inbounds nuw i8, ptr %1, i64 2
  %21 = load i8, ptr %20, align 1, !tbaa !4
  %22 = xor i8 %21, -128
  %23 = zext i8 %22 to i32
  %.not43 = icmp ult i8 %22, 64
  br i1 %.not43, label %24, label %49

24:                                               ; preds = %19
  %25 = icmp samesign ult i8 %3, -16
  br i1 %25, label %26, label %33

26:                                               ; preds = %24
  %27 = shl nuw nsw i32 %4, 12
  %28 = shl nuw nsw i32 %10, 6
  %.masked45 = and i32 %27, 61440
  %.masked44 = or disjoint i32 %28, %.masked45
  %29 = icmp samesign ult i32 %.masked44, 2048
  %30 = and i32 %.masked44, 63488
  %or.cond = icmp eq i32 %30, 55296
  %or.cond47 = or i1 %29, %or.cond
  br i1 %or.cond47, label %49, label %31

31:                                               ; preds = %26
  %32 = or disjoint i32 %.masked44, %23
  br label %50

33:                                               ; preds = %24
  %34 = getelementptr inbounds nuw i8, ptr %1, i64 3
  %35 = load i8, ptr %34, align 1, !tbaa !4
  %36 = xor i8 %35, -128
  %37 = icmp ult i8 %36, 64
  %38 = icmp samesign ult i8 %3, -8
  %or.cond5 = and i1 %38, %37
  br i1 %or.cond5, label %39, label %49

39:                                               ; preds = %33
  %40 = shl nuw nsw i32 %4, 12
  %41 = shl nuw nsw i32 %10, 6
  %42 = or disjoint i32 %41, %40
  %43 = or disjoint i32 %42, %23
  %44 = shl nuw nsw i32 %43, 6
  %.masked = and i32 %44, 2097088
  %45 = add nsw i32 %.masked, -1114112
  %or.cond3 = icmp ult i32 %45, -1048576
  br i1 %or.cond3, label %49, label %46

46:                                               ; preds = %39
  %47 = zext nneg i8 %36 to i32
  %48 = or disjoint i32 %.masked, %47
  br label %50

49:                                               ; preds = %39, %33, %26, %19, %15, %13, %6
  br label %50

50:                                               ; preds = %15, %2, %49, %46, %31
  %.sink = phi i32 [ 65533, %49 ], [ %48, %46 ], [ %32, %31 ], [ %4, %2 ], [ %17, %15 ]
  %.0 = phi i32 [ 1, %49 ], [ 4, %46 ], [ 3, %31 ], [ 1, %2 ], [ 2, %15 ]
  store i32 %.sink, ptr %0, align 4, !tbaa !7
  ret i32 %.0
}